target datalayout = "e-m:e-p270:32:32-p271:32:32-p272:64:64-i64:64-i128:128-f80:128-n8:16:32:64-S128"
target triple = "x86_64-pc-linux-gnu"

%struct._zend_executor_globals = type { %struct._zval_struct, %struct._zval_struct, [32 x ptr], ptr, ptr, %struct._zend_array, %struct._zend_array, ptr, i32, i32, ptr, ptr, ptr, ptr, ptr, ptr, i64, ptr, ptr, i32, i32, i64, i32, i32, i32, i8, i8, %struct.zend_atomic_bool_s, %struct.zend_atomic_bool_s, ptr, i64, ptr, ptr, %struct._zend_array, %struct._zend_array, i32, i8, %struct._zval_struct, %struct._zval_struct, %struct._zend_stack, %struct._zend_stack, %struct._zend_stack, ptr, i32, i32, i64, ptr, ptr, ptr, %struct._zend_objects_store, ptr, ptr, ptr, [3 x %struct._zend_op], ptr, i8, i8, i64, i32, i32, ptr, [16 x %struct._HashTableIterator], ptr, %union._zend_function, %struct._zend_op, %struct._zend_array, i64, %struct.zend_get_gc_buffer, ptr, ptr, ptr, i64, i8, i32, ptr, ptr, i64, %struct._zend_call_stack, i64, i64, [6 x ptr] }
%struct.zend_atomic_bool_s = type { i8 }
%struct._zval_struct = type { %union._zend_value, %union.anon, %union.anon.2 }
%union._zend_value = type { i64 }
%union.anon = type { i32 }
%union.anon.2 = type { i32 }
%struct._zend_stack = type { i32, i32, i32, ptr }
%struct._zend_objects_store = type { ptr, i32, i32, i32 }
%struct._HashTableIterator = type { ptr, i32, i32 }
%union._zend_function = type { %struct._zend_op_array }
%struct._zend_op_array = type { i8, [3 x i8], i32, ptr, ptr, ptr, i32, i32, ptr, ptr, ptr, ptr, i32, i32, i32, i32, ptr, ptr, ptr, ptr, ptr, i32, i32, ptr, ptr, ptr, i32, i32, i32, i32, ptr, ptr, [6 x ptr] }
%struct._zend_op = type { ptr, %union._znode_op, %union._znode_op, %union._znode_op, i32, i32, i8, i8, i8, i8 }
%union._znode_op = type { i32 }
%struct._zend_array = type { %struct._zend_refcounted_h, %union.anon.4, i32, %union.anon.6, i32, i32, i32, i32, i64, ptr }
%struct._zend_refcounted_h = type { i32, %union.anon.3 }
%union.anon.3 = type { i32 }
%union.anon.4 = type { i32 }
%union.anon.6 = type { ptr }
%struct.zend_get_gc_buffer = type { ptr, ptr, ptr }
%struct._zend_call_stack = type { ptr, i64 }
%struct._zend_object_iterator_funcs = type { ptr, ptr, ptr, ptr, ptr, ptr, ptr, ptr }
%struct._zend_object = type { %struct._zend_refcounted_h, i32, ptr, ptr, ptr, [1 x %struct._zval_struct] }
%struct.anon.0 = type { i8, i8, %union.anon.1 }
%union.anon.1 = type { i16 }
%struct._zend_object_iterator = type { %struct._zend_object, %struct._zval_struct, ptr, i64 }

@executor_globals = external global %struct._zend_executor_globals, align 8

; Function Attrs: nounwind uwtable
define internal i32 @spl_iterator_to_values_apply(ptr noundef %0, ptr noundef %1) #0 {
  %3 = alloca ptr, align 8
  %4 = alloca ptr, align 8
  %5 = alloca ptr, align 8
  %6 = alloca ptr, align 8
  %7 = alloca i32, align 4
  %8 = alloca ptr, align 8
  %9 = alloca ptr, align 8
  %10 = alloca ptr, align 8
  %11 = alloca ptr, align 8
  store ptr %0, ptr %8, align 8
  store ptr %1, ptr %9, align 8
  %12 = load ptr, ptr %9, align 8
  store ptr %12, ptr %11, align 8
  %13 = load ptr, ptr %8, align 8
  %14 = getelementptr inbounds %struct._zend_object_iterator, ptr %13, i32 0, i32 2
  %15 = load ptr, ptr %14, align 8
  %16 = getelementptr inbounds %struct._zend_object_iterator_funcs, ptr %15, i32 0, i32 2
  %17 = load ptr, ptr %16, align 8
  %18 = load ptr, ptr %8, align 8
  %19 = call ptr %17(ptr noundef %18)
  store ptr %19, ptr %10, align 8
  %20 = load ptr, ptr getelementptr inbounds (%struct._zend_executor_globals, ptr @executor_globals, i32 0, i32 50), align 8
  %21 = icmp ne ptr %20, null
  br i1 %21, label %22, label %23

22:                                               ; preds = %2
  store i32 2, ptr %7, align 4
  br label %56

23:                                               ; preds = %2
  %24 = load ptr, ptr %10, align 8
  %25 = icmp eq ptr %24, null
  br i1 %25, label %26, label %27

26:                                               ; preds = %23
  store i32 2, ptr %7, align 4
  br label %56

27:                                               ; preds = %23
  br label %28

28:                                               ; preds = %27
  %29 = load ptr, ptr %10, align 8
  %30 = getelementptr inbounds %struct._zval_struct, ptr %29, i32 0, i32 1
  %31 = getelementptr inbounds %struct.anon.0, ptr %30, i32 0, i32 1
  %32 = load i8, ptr %31, align 1
  %33 = zext i8 %32 to i32
  %34 = icmp ne i32 %33, 0
  br i1 %34, label %35, label %48

35:                                               ; preds = %28
  %36 = load ptr, ptr %10, align 8
  store ptr %36, ptr %6, align 8
  %37 = load ptr, ptr %6, align 8
  %38 = getelementptr inbounds %struct._zval_struct, ptr %37, i32 0, i32 1
  %39 = getelementptr inbounds %struct.anon.0, ptr %38, i32 0, i32 1
  %40 = load i8, ptr %39, align 1
  %41 = zext i8 %40 to i32
  %42 = icmp ne i32 %41, 0
  call void @llvm.assume(i1 %42)
  %43 = load ptr, ptr %6, align 8
  %44 = load ptr, ptr %43, align 8
  store ptr %44, ptr %5, align 8
  %45 = load ptr, ptr %5, align 8
  %46 = load i32, ptr %45, align 4
  %47 = add i32 %46, 1
  store i32 %47, ptr %45, align 4
  br label %48

48:                                               ; preds = %35, %28
  br label %49

49:                                               ; preds = %48
  %50 = load ptr, ptr %11, align 8
  %51 = load ptr, ptr %10, align 8
  store ptr %50, ptr %3, align 8
  store ptr %51, ptr %4, align 8
  %52 = load ptr, ptr %3, align 8
  %53 = load ptr, ptr %52, align 8
  %54 = load ptr, ptr %4, align 8
  %55 = call ptr @zend_hash_next_index_insert(ptr noundef %53, ptr noundef %54) #10
  store i32 0, ptr %7, align 4
  br label %56

56:                                               ; preds = %49, %26, %22
  %57 = load i32, ptr %7, align 4
  ret i32 %57
}