; Function Attrs: nounwind uwtable
define internal noundef i32 @spl_iterator_to_values_apply(ptr noundef %0, ptr nocapture noundef readonly %1) #0 {
  %3 = getelementptr inbounds i8, ptr %0, i64 72
  %4 = load ptr, ptr %3, align 8
  %5 = getelementptr inbounds i8, ptr %4, i64 16
  %6 = load ptr, ptr %5, align 8
  %7 = tail call ptr %6(ptr noundef %0) #10
  %8 = load ptr, ptr getelementptr inbounds (%struct._zend_executor_globals, ptr @executor_globals, i64 0, i32 50), align 8
  %.not = icmp ne ptr %8, null
  %9 = icmp eq ptr %7, null
  %or.cond = select i1 %.not, i1 true, i1 %9
  br i1 %or.cond, label %20, label %10

10:                                               ; preds = %2
  %11 = getelementptr inbounds i8, ptr %7, i64 9
  %12 = load i8, ptr %11, align 1
  %.not14 = icmp eq i8 %12, 0
  br i1 %.not14, label %17, label %13

13:                                               ; preds = %10
  %14 = load ptr, ptr %7, align 8
  %15 = load i32, ptr %14, align 4
  %16 = add i32 %15, 1
  store i32 %16, ptr %14, align 4
  br label %17

17:                                               ; preds = %10, %13
  %18 = load ptr, ptr %1, align 8
  %19 = tail call ptr @zend_hash_next_index_insert(ptr noundef %18, ptr noundef nonnull %7) #10
  br label %20

20:                                               ; preds = %2, %17
  %.0 = phi i32 [ 0, %17 ], [ 2, %2 ]
  ret i32 %.0
}